target datalayout = "e-m:e-p270:32:32-p271:32:32-p272:64:64-i64:64-i128:128-f80:128-n8:16:32:64-S128"
target triple = "x86_64-pc-linux-gnu"

%struct.ncp_common_header = type { i16, i8, i8, i8, i8 }
%struct._ct_dissector_info = type { ptr }
%struct._conversation_hash_t = type { ptr, ptr, ptr, i32 }
%struct._packet_info = type { ptr, ptr, i32, i32, %struct.nstime_t, %struct.nstime_t, %struct.nstime_t, i8, ptr, ptr, ptr, ptr, %struct._address, %struct._address, %struct._address, %struct._address, %struct._address, %struct._address, i32, ptr, i8, [3 x i8], %struct.anon, i32, i32, i32, i32, ptr, i8, ptr, ptr, i16, i16, i32, i32, i16, i32, i32, ptr, ptr, ptr, i8, i8, i16, i16, i16, i32, i16, i16, ptr, ptr, ptr, ptr, ptr, i32, i32 }
%struct.nstime_t = type { i64, i32 }
%struct._address = type { i32, i32, ptr, ptr }
%struct.anon = type { i8, [3 x i8] }
%struct._frame_data = type <{ i32, i32, i32, i32, i32, [4 x i8], i64, ptr, ptr, ptr, i8, i16, [5 x i8], %struct.nstime_t, %struct.nstime_t, i32, i32 }>

@ncp_ct_dissector_info = internal global %struct._ct_dissector_info { ptr @ncp_conv_get_filter_type }, align 8

; Function Attrs: null_pointer_is_valid sspstrong uwtable
define internal i32 @ncp_conversation_packet(ptr noundef %0, ptr noundef %1, ptr noundef %2, ptr noundef %3, i32 noundef %4) #0 {
  %6 = alloca ptr, align 8
  %7 = alloca ptr, align 8
  %8 = alloca ptr, align 8
  %9 = alloca ptr, align 8
  %10 = alloca i32, align 4
  %11 = alloca ptr, align 8
  %12 = alloca ptr, align 8
  %13 = alloca i32, align 4
  store ptr %0, ptr %6, align 8
  store ptr %1, ptr %7, align 8
  store ptr %2, ptr %8, align 8
  store ptr %3, ptr %9, align 8
  store i32 %4, ptr %10, align 4
  call void @llvm.lifetime.start.p0(i64 8, ptr %11) #8
  %14 = load ptr, ptr %6, align 8
  store ptr %14, ptr %11, align 8
  %15 = load i32, ptr %10, align 4
  %16 = load ptr, ptr %11, align 8
  %17 = getelementptr inbounds nuw %struct._conversation_hash_t, ptr %16, i32 0, i32 3
  store i32 %15, ptr %17, align 8
  call void @llvm.lifetime.start.p0(i64 8, ptr %12) #8
  %18 = load ptr, ptr %9, align 8
  store ptr %18, ptr %12, align 8
  call void @llvm.lifetime.start.p0(i64 4, ptr %13) #8
  %19 = load ptr, ptr %12, align 8
  %20 = getelementptr inbounds nuw %struct.ncp_common_header, ptr %19, i32 0, i32 4
  %21 = load i8, ptr %20, align 1
  %22 = zext i8 %21 to i32
  %23 = mul i32 %22, 256
  %24 = load ptr, ptr %12, align 8
  %25 = getelementptr inbounds nuw %struct.ncp_common_header, ptr %24, i32 0, i32 2
  %26 = load i8, ptr %25, align 1
  %27 = zext i8 %26 to i32
  %28 = add i32 %23, %27
  store i32 %28, ptr %13, align 4
  %29 = load i32, ptr %13, align 4
  %30 = icmp ult i32 %29, 65535
  br i1 %30, label %31, label %48

31:                                               ; preds = %5
  %32 = load ptr, ptr %11, align 8
  %33 = load ptr, ptr %7, align 8
  %34 = getelementptr inbounds nuw %struct._packet_info, ptr %33, i32 0, i32 16
  %35 = load ptr, ptr %7, align 8
  %36 = getelementptr inbounds nuw %struct._packet_info, ptr %35, i32 0, i32 17
  %37 = load i32, ptr %13, align 4
  %38 = load i32, ptr %13, align 4
  %39 = load ptr, ptr %7, align 8
  %40 = getelementptr inbounds nuw %struct._packet_info, ptr %39, i32 0, i32 8
  %41 = load ptr, ptr %40, align 8
  %42 = getelementptr inbounds nuw %struct._frame_data, ptr %41, i32 0, i32 2
  %43 = load i32, ptr %42, align 8
  %44 = load ptr, ptr %7, align 8
  %45 = getelementptr inbounds nuw %struct._packet_info, ptr %44, i32 0, i32 5
  %46 = load ptr, ptr %7, align 8
  %47 = getelementptr inbounds nuw %struct._packet_info, ptr %46, i32 0, i32 4
  call void @add_conversation_table_data(ptr noundef %32, ptr noundef %34, ptr noundef %36, i32 noundef %37, i32 noundef %38, i32 noundef 1, i32 noundef %43, ptr noundef %45, ptr noundef %47, ptr noundef @ncp_ct_dissector_info, i32 noundef 6)
  br label %48

48:                                               ; preds = %31, %5
  call void @llvm.lifetime.end.p0(i64 4, ptr %13) #8
  call void @llvm.lifetime.end.p0(i64 8, ptr %12) #8
  call void @llvm.lifetime.end.p0(i64 8, ptr %11) #8
  ret i32 1
}