; Function Attrs: null_pointer_is_valid sspstrong uwtable
define internal noundef i32 @ncp_conversation_packet(ptr noundef initializes((24, 28)) %0, ptr noundef %1, ptr readnone captures(none) %2, ptr noundef readonly captures(none) %3, i32 noundef %4) #0 {
  %6 = getelementptr inbounds nuw i8, ptr %0, i64 24
  store i32 %4, ptr %6, align 8
  %7 = getelementptr inbounds nuw i8, ptr %3, i64 5
  %8 = load i8, ptr %7, align 1
  %9 = zext i8 %8 to i32
  %10 = shl nuw nsw i32 %9, 8
  %11 = getelementptr inbounds nuw i8, ptr %3, i64 3
  %12 = load i8, ptr %11, align 1
  %13 = zext i8 %12 to i32
  %14 = or disjoint i32 %10, %13
  %.not = icmp eq i32 %14, 65535
  br i1 %.not, label %24, label %15

15:                                               ; preds = %5
  %16 = getelementptr inbounds nuw i8, ptr %1, i64 208
  %17 = getelementptr inbounds nuw i8, ptr %1, i64 232
  %18 = getelementptr inbounds nuw i8, ptr %1, i64 80
  %19 = load ptr, ptr %18, align 8
  %20 = getelementptr inbounds nuw i8, ptr %19, i64 8
  %21 = load i32, ptr %20, align 8
  %22 = getelementptr inbounds nuw i8, ptr %1, i64 40
  %23 = getelementptr inbounds nuw i8, ptr %1, i64 24
  tail call void @add_conversation_table_data(ptr noundef %0, ptr noundef nonnull %16, ptr noundef nonnull %17, i32 noundef %14, i32 noundef %14, i32 noundef 1, i32 noundef %21, ptr noundef nonnull %22, ptr noundef nonnull %23, ptr noundef nonnull @ncp_ct_dissector_info, i32 noundef 6)
  br label %24

24:                                               ; preds = %15, %5
  ret i32 1
}